target datalayout = "e-m:e-p270:32:32-p271:32:32-p272:64:64-i64:64-i128:128-f80:128-n8:16:32:64-S128"
target triple = "x86_64-pc-linux-gnu"

%struct._fvalue_t = type { ptr, %union.anon.1 }
%union.anon.1 = type { %struct._protocol_value_t }
%struct._protocol_value_t = type { ptr, i32, ptr, i8 }

; Function Attrs: null_pointer_is_valid sspstrong uwtable
define internal void @bytes_fvalue_free(ptr noundef %0) #0 {
  %2 = alloca ptr, align 8
  store ptr %0, ptr %2, align 8
  %3 = load ptr, ptr %2, align 8
  %4 = getelementptr inbounds nuw %struct._fvalue_t, ptr %3, i32 0, i32 1
  %5 = load ptr, ptr %4, align 8
  %6 = icmp ne ptr %5, null
  br i1 %6, label %7, label %13

7:                                                ; preds = %1
  %8 = load ptr, ptr %2, align 8
  %9 = getelementptr inbounds nuw %struct._fvalue_t, ptr %8, i32 0, i32 1
  %10 = load ptr, ptr %9, align 8
  call void @g_bytes_unref(ptr noundef %10)
  %11 = load ptr, ptr %2, align 8
  %12 = getelementptr inbounds nuw %struct._fvalue_t, ptr %11, i32 0, i32 1
  store ptr null, ptr %12, align 8
  br label %13

13:                                               ; preds = %7, %1
  ret void
}

; Function Attrs: inlinehint nounwind null_pointer_is_valid sspstrong uwtable
define internal void @phton64(ptr noundef %0, i64 noundef %1) #8 {
  %3 = alloca ptr, align 8
  %4 = alloca i64, align 8
  store ptr %0, ptr %3, align 8
  store i64 %1, ptr %4, align 8
  %5 = load i64, ptr %4, align 8
  %6 = lshr i64 %5, 56
  %7 = trunc i64 %6 to i8
  %8 = load ptr, ptr %3, align 8
  %9 = getelementptr i8, ptr %8, i64 0
  store i8 %7, ptr %9, align 1
  %10 = load i64, ptr %4, align 8
  %11 = lshr i64 %10, 48
  %12 = trunc i64 %11 to i8
  %13 = load ptr, ptr %3, align 8
  %14 = getelementptr i8, ptr %13, i64 1
  store i8 %12, ptr %14, align 1
  %15 = load i64, ptr %4, align 8
  %16 = lshr i64 %15, 40
  %17 = trunc i64 %16 to i8
  %18 = load ptr, ptr %3, align 8
  %19 = getelementptr i8, ptr %18, i64 2
  store i8 %17, ptr %19, align 1
  %20 = load i64, ptr %4, align 8
  %21 = lshr i64 %20, 32
  %22 = trunc i64 %21 to i8
  %23 = load ptr, ptr %3, align 8
  %24 = getelementptr i8, ptr %23, i64 3
  store i8 %22, ptr %24, align 1
  %25 = load i64, ptr %4, align 8
  %26 = lshr i64 %25, 24
  %27 = trunc i64 %26 to i8
  %28 = load ptr, ptr %3, align 8
  %29 = getelementptr i8, ptr %28, i64 4
  store i8 %27, ptr %29, align 1
  %30 = load i64, ptr %4, align 8
  %31 = lshr i64 %30, 16
  %32 = trunc i64 %31 to i8
  %33 = load ptr, ptr %3, align 8
  %34 = getelementptr i8, ptr %33, i64 5
  store i8 %32, ptr %34, align 1
  %35 = load i64, ptr %4, align 8
  %36 = lshr i64 %35, 8
  %37 = trunc i64 %36 to i8
  %38 = load ptr, ptr %3, align 8
  %39 = getelementptr i8, ptr %38, i64 6
  store i8 %37, ptr %39, align 1
  %40 = load i64, ptr %4, align 8
  %41 = lshr i64 %40, 0
  %42 = trunc i64 %41 to i8
  %43 = load ptr, ptr %3, align 8
  %44 = getelementptr i8, ptr %43, i64 7
  store i8 %42, ptr %44, align 1
  ret void
}

; Function Attrs: null_pointer_is_valid sspstrong uwtable
define internal zeroext i1 @eui64_from_uinteger64(ptr noundef %0, ptr noundef %1, i64 noundef %2, ptr noundef %3) #0 {
  %5 = alloca ptr, align 8
  %6 = alloca ptr, align 8
  %7 = alloca i64, align 8
  %8 = alloca ptr, align 8
  %9 = alloca [8 x i8], align 1
  store ptr %0, ptr %5, align 8
  store ptr %1, ptr %6, align 8
  store i64 %2, ptr %7, align 8
  store ptr %3, ptr %8, align 8
  call void @llvm.lifetime.start.p0(i64 8, ptr %9) #9
  %10 = getelementptr inbounds [8 x i8], ptr %9, i64 0, i64 0
  %11 = load i64, ptr %7, align 8
  call void @phton64(ptr noundef %10, i64 noundef %11)
  %12 = load ptr, ptr %5, align 8
  call void @bytes_fvalue_free(ptr noundef %12)
  %13 = getelementptr inbounds [8 x i8], ptr %9, i64 0, i64 0
  %14 = call ptr @g_bytes_new(ptr noundef %13, i64 noundef 8)
  %15 = load ptr, ptr %5, align 8
  %16 = getelementptr inbounds nuw %struct._fvalue_t, ptr %15, i32 0, i32 1
  store ptr %14, ptr %16, align 8
  call void @llvm.lifetime.end.p0(i64 8, ptr %9) #9
  ret i1 true
}