; Function Attrs: null_pointer_is_valid sspstrong uwtable
define internal noundef zeroext i1 @eui64_from_uinteger64(ptr noundef captures(none) %0, ptr readnone captures(none) %1, i64 noundef %2, ptr readnone captures(none) %3) #0 {
  %5 = alloca [8 x i8], align 1
  call void @llvm.lifetime.start.p0(i64 8, ptr nonnull %5) #12
  %6 = lshr i64 %2, 56
  %7 = trunc nuw i64 %6 to i8
  store i8 %7, ptr %5, align 1
  %8 = lshr i64 %2, 48
  %9 = trunc i64 %8 to i8
  %10 = getelementptr inbounds nuw i8, ptr %5, i64 1
  store i8 %9, ptr %10, align 1
  %11 = lshr i64 %2, 40
  %12 = trunc i64 %11 to i8
  %13 = getelementptr inbounds nuw i8, ptr %5, i64 2
  store i8 %12, ptr %13, align 1
  %14 = lshr i64 %2, 32
  %15 = trunc i64 %14 to i8
  %16 = getelementptr inbounds nuw i8, ptr %5, i64 3
  store i8 %15, ptr %16, align 1
  %17 = lshr i64 %2, 24
  %18 = trunc i64 %17 to i8
  %19 = getelementptr inbounds nuw i8, ptr %5, i64 4
  store i8 %18, ptr %19, align 1
  %20 = lshr i64 %2, 16
  %21 = trunc i64 %20 to i8
  %22 = getelementptr inbounds nuw i8, ptr %5, i64 5
  store i8 %21, ptr %22, align 1
  %23 = lshr i64 %2, 8
  %24 = trunc i64 %23 to i8
  %25 = getelementptr inbounds nuw i8, ptr %5, i64 6
  store i8 %24, ptr %25, align 1
  %26 = trunc i64 %2 to i8
  %27 = getelementptr inbounds nuw i8, ptr %5, i64 7
  store i8 %26, ptr %27, align 1
  %28 = getelementptr inbounds nuw i8, ptr %0, i64 8
  %29 = load ptr, ptr %28, align 8
  %.not.i = icmp eq ptr %29, null
  br i1 %.not.i, label %bytes_fvalue_free.exit, label %30

30:                                               ; preds = %4
  tail call void @g_bytes_unref(ptr noundef nonnull %29)
  store ptr null, ptr %28, align 8
  br label %bytes_fvalue_free.exit

bytes_fvalue_free.exit:                           ; preds = %4, %30
  %31 = call ptr @g_bytes_new(ptr noundef nonnull %5, i64 noundef 8)
  store ptr %31, ptr %28, align 8
  call void @llvm.lifetime.end.p0(i64 8, ptr nonnull %5) #12
  ret i1 true
}